target datalayout = "e-m:e-p270:32:32-p271:32:32-p272:64:64-i64:64-i128:128-f80:128-n8:16:32:64-S128"
target triple = "x86_64-pc-linux-gnu"

@opt_verbosity = internal global i32 6, align 4
@bio_err = external global ptr, align 8
@.str.351 = private unnamed_addr constant [22 x i8] c"../openssl/apps/cmp.c\00", align 1
@.str.352 = private unnamed_addr constant [6 x i8] c"error\00", align 1
@.str.353 = private unnamed_addr constant [1 x i8] zeroinitializer, align 1
@bio_out = external global ptr, align 8
@.str.363 = private unnamed_addr constant [8 x i8] c"warning\00", align 1
@opt_server = internal global ptr null, align 8
@opt_use_mock_srv = internal global i32 0, align 4
@opt_reqin = internal global ptr null, align 8
@opt_reqout = internal global ptr null, align 8
@opt_rspin = internal global ptr null, align 8
@opt_rspout = internal global ptr null, align 8
@opt_reqout_only = internal global ptr null, align 8
@reqout_only_done = internal global i32 0, align 4
@opt_reqin_new_tid = internal global i32 0, align 4
@rspin_in_use = internal global i32 0, align 4
@.str.483 = private unnamed_addr constant [67 x i8] c"%s:%s:%d:CMP %s: cannot write request PKIMessage to file '%s'%s%s\0A\00", align 1
@__func__.read_write_req_resp = private unnamed_addr constant [20 x i8] c"read_write_req_resp\00", align 1
@.str.484 = private unnamed_addr constant [17 x i8] c"actually sending\00", align 1
@.str.485 = private unnamed_addr constant [15 x i8] c"actually using\00", align 1
@.str.486 = private unnamed_addr constant [90 x i8] c"%s:%s:%d:CMP %s: too few -rspin filename arguments; resorting to using mock server%s%s%s\0A\00", align 1
@.str.487 = private unnamed_addr constant [102 x i8] c"%s:%s:%d:CMP %s: missing -server or -use_mock_srv option, or too few -rspin filename arguments%s%s%s\0A\00", align 1
@.str.488 = private unnamed_addr constant [90 x i8] c"%s:%s:%d:CMP %s: too few -rspin filename arguments; resorting to contacting server%s%s%s\0A\00", align 1

; Function Attrs: nounwind uwtable
define internal ptr @read_write_req_resp(ptr noundef %0, ptr noundef %1) #0 {
  %3 = alloca ptr, align 8
  %4 = alloca ptr, align 8
  %5 = alloca ptr, align 8
  %6 = alloca ptr, align 8
  %7 = alloca ptr, align 8
  %8 = alloca ptr, align 8
  %9 = alloca ptr, align 8
  %10 = alloca i32, align 4
  %11 = alloca ptr, align 8
  %12 = alloca ptr, align 8
  %13 = alloca ptr, align 8
  store ptr %0, ptr %4, align 8, !tbaa !17
  store ptr %1, ptr %5, align 8, !tbaa !63
  call void @llvm.lifetime.start.p0(i64 8, ptr %6) #11
  store ptr null, ptr %6, align 8, !tbaa !63
  call void @llvm.lifetime.start.p0(i64 8, ptr %7) #11
  store ptr null, ptr %7, align 8, !tbaa !63
  call void @llvm.lifetime.start.p0(i64 8, ptr %8) #11
  call void @llvm.lifetime.start.p0(i64 8, ptr %9) #11
  %14 = load ptr, ptr @opt_rspin, align 8, !tbaa !11
  store ptr %14, ptr %9, align 8, !tbaa !11
  %15 = load ptr, ptr @opt_reqout_only, align 8, !tbaa !11
  %16 = icmp ne ptr %15, null
  br i1 %16, label %17, label %33

17:                                               ; preds = %2
  %18 = load ptr, ptr @opt_reqout_only, align 8, !tbaa !11
  %19 = load ptr, ptr %5, align 8, !tbaa !63
  %20 = call i32 @OSSL_CMP_MSG_write(ptr noundef %18, ptr noundef %19)
  %21 = icmp slt i32 %20, 0
  br i1 %21, label %22, label %31

22:                                               ; preds = %17
  %23 = load i32, ptr @opt_verbosity, align 4, !tbaa !4
  %24 = icmp sgt i32 3, %23
  br i1 %24, label %25, label %26

25:                                               ; preds = %22
  br label %30

26:                                               ; preds = %22
  %27 = load ptr, ptr @bio_err, align 8, !tbaa !21
  %28 = load ptr, ptr @opt_reqout_only, align 8, !tbaa !11
  %29 = call i32 (ptr, ptr, ...) @BIO_printf(ptr noundef %27, ptr noundef @.str.483, ptr noundef @__func__.read_write_req_resp, ptr noundef @.str.351, i32 noundef 873, ptr noundef @.str.352, ptr noundef %28, ptr noundef @.str.353, ptr noundef @.str.353)
  br label %30

30:                                               ; preds = %26, %25
  br label %32

31:                                               ; preds = %17
  store i32 1, ptr @reqout_only_done, align 4, !tbaa !4
  br label %32

32:                                               ; preds = %31, %30
  store ptr null, ptr %3, align 8
  store i32 1, ptr %10, align 4
  br label %173

33:                                               ; preds = %2
  %34 = load ptr, ptr @opt_reqout, align 8, !tbaa !11
  %35 = icmp ne ptr %34, null
  br i1 %35, label %36, label %41

36:                                               ; preds = %33
  %37 = load ptr, ptr %5, align 8, !tbaa !63
  %38 = call i32 @write_PKIMESSAGE(ptr noundef %37, ptr noundef @opt_reqout)
  %39 = icmp ne i32 %38, 0
  br i1 %39, label %41, label %40

40:                                               ; preds = %36
  br label %170

41:                                               ; preds = %36, %33
  %42 = load ptr, ptr @opt_reqin, align 8, !tbaa !11
  %43 = icmp ne ptr %42, null
  br i1 %43, label %44, label %67

44:                                               ; preds = %41
  %45 = load ptr, ptr @opt_rspin, align 8, !tbaa !11
  %46 = icmp eq ptr %45, null
  br i1 %46, label %47, label %67

47:                                               ; preds = %44
  %48 = call ptr @read_PKIMESSAGE(ptr noundef @.str.484, ptr noundef @opt_reqin)
  store ptr %48, ptr %6, align 8, !tbaa !63
  %49 = icmp eq ptr %48, null
  br i1 %49, label %50, label %51

50:                                               ; preds = %47
  br label %170

51:                                               ; preds = %47
  %52 = load i32, ptr @opt_reqin_new_tid, align 4, !tbaa !4
  %53 = icmp ne i32 %52, 0
  br i1 %53, label %54, label %60

54:                                               ; preds = %51
  %55 = load ptr, ptr %4, align 8, !tbaa !17
  %56 = load ptr, ptr %6, align 8, !tbaa !63
  %57 = call i32 @OSSL_CMP_MSG_update_transactionID(ptr noundef %55, ptr noundef %56)
  %58 = icmp ne i32 %57, 0
  br i1 %58, label %60, label %59

59:                                               ; preds = %54
  br label %170

60:                                               ; preds = %54, %51
  %61 = load ptr, ptr %4, align 8, !tbaa !17
  %62 = load ptr, ptr %6, align 8, !tbaa !63
  %63 = call i32 @OSSL_CMP_MSG_update_recipNonce(ptr noundef %61, ptr noundef %62)
  %64 = icmp ne i32 %63, 0
  br i1 %64, label %66, label %65

65:                                               ; preds = %60
  br label %170

66:                                               ; preds = %60
  br label %67

67:                                               ; preds = %66, %44, %41
  %68 = load ptr, ptr @opt_rspin, align 8, !tbaa !11
  %69 = icmp ne ptr %68, null
  br i1 %69, label %70, label %72

70:                                               ; preds = %67
  %71 = call ptr @read_PKIMESSAGE(ptr noundef @.str.485, ptr noundef @opt_rspin)
  store ptr %71, ptr %7, align 8, !tbaa !63
  br label %128

72:                                               ; preds = %67
  call void @llvm.lifetime.start.p0(i64 8, ptr %11) #11
  %73 = load ptr, ptr %6, align 8, !tbaa !63
  %74 = icmp ne ptr %73, null
  br i1 %74, label %75, label %77

75:                                               ; preds = %72
  %76 = load ptr, ptr %6, align 8, !tbaa !63
  br label %79

77:                                               ; preds = %72
  %78 = load ptr, ptr %5, align 8, !tbaa !63
  br label %79

79:                                               ; preds = %77, %75
  %80 = phi ptr [ %76, %75 ], [ %78, %77 ]
  store ptr %80, ptr %11, align 8, !tbaa !63
  %81 = load i32, ptr @opt_use_mock_srv, align 4, !tbaa !4
  %82 = icmp ne i32 %81, 0
  br i1 %82, label %83, label %98

83:                                               ; preds = %79
  %84 = load i32, ptr @rspin_in_use, align 4, !tbaa !4
  %85 = icmp ne i32 %84, 0
  br i1 %85, label %86, label %94

86:                                               ; preds = %83
  %87 = load i32, ptr @opt_verbosity, align 4, !tbaa !4
  %88 = icmp sgt i32 4, %87
  br i1 %88, label %89, label %90

89:                                               ; preds = %86
  br label %93

90:                                               ; preds = %86
  %91 = load ptr, ptr @bio_out, align 8, !tbaa !21
  %92 = call i32 (ptr, ptr, ...) @BIO_printf(ptr noundef %91, ptr noundef @.str.486, ptr noundef @__func__.read_write_req_resp, ptr noundef @.str.351, i32 noundef 907, ptr noundef @.str.363, ptr noundef @.str.353, ptr noundef @.str.353, ptr noundef @.str.353)
  br label %93

93:                                               ; preds = %90, %89
  br label %94

94:                                               ; preds = %93, %83
  %95 = load ptr, ptr %4, align 8, !tbaa !17
  %96 = load ptr, ptr %11, align 8, !tbaa !63
  %97 = call ptr @OSSL_CMP_CTX_server_perform(ptr noundef %95, ptr noundef %96)
  store ptr %97, ptr %7, align 8, !tbaa !63
  br label %124

98:                                               ; preds = %79
  %99 = load ptr, ptr @opt_server, align 8, !tbaa !11
  %100 = icmp eq ptr %99, null
  br i1 %100, label %101, label %109

101:                                              ; preds = %98
  %102 = load i32, ptr @opt_verbosity, align 4, !tbaa !4
  %103 = icmp sgt i32 3, %102
  br i1 %103, label %104, label %105

104:                                              ; preds = %101
  br label %108

105:                                              ; preds = %101
  %106 = load ptr, ptr @bio_err, align 8, !tbaa !21
  %107 = call i32 (ptr, ptr, ...) @BIO_printf(ptr noundef %106, ptr noundef @.str.487, ptr noundef @__func__.read_write_req_resp, ptr noundef @.str.351, i32 noundef 912, ptr noundef @.str.352, ptr noundef @.str.353, ptr noundef @.str.353, ptr noundef @.str.353)
  br label %108

108:                                              ; preds = %105, %104
  store i32 2, ptr %10, align 4
  br label %125

109:                                              ; preds = %98
  %110 = load i32, ptr @rspin_in_use, align 4, !tbaa !4
  %111 = icmp ne i32 %110, 0
  br i1 %111, label %112, label %120

112:                                              ; preds = %109
  %113 = load i32, ptr @opt_verbosity, align 4, !tbaa !4
  %114 = icmp sgt i32 4, %113
  br i1 %114, label %115, label %116

115:                                              ; preds = %112
  br label %119

116:                                              ; preds = %112
  %117 = load ptr, ptr @bio_out, align 8, !tbaa !21
  %118 = call i32 (ptr, ptr, ...) @BIO_printf(ptr noundef %117, ptr noundef @.str.488, ptr noundef @__func__.read_write_req_resp, ptr noundef @.str.351, i32 noundef 916, ptr noundef @.str.363, ptr noundef @.str.353, ptr noundef @.str.353, ptr noundef @.str.353)
  br label %119

119:                                              ; preds = %116, %115
  br label %120

120:                                              ; preds = %119, %109
  %121 = load ptr, ptr %4, align 8, !tbaa !17
  %122 = load ptr, ptr %11, align 8, !tbaa !63
  %123 = call ptr @OSSL_CMP_MSG_http_perform(ptr noundef %121, ptr noundef %122)
  store ptr %123, ptr %7, align 8, !tbaa !63
  br label %124

124:                                              ; preds = %120, %94
  store i32 0, ptr @rspin_in_use, align 4, !tbaa !4
  store i32 0, ptr %10, align 4
  br label %125

125:                                              ; preds = %108, %124
  call void @llvm.lifetime.end.p0(i64 8, ptr %11) #11
  %126 = load i32, ptr %10, align 4
  switch i32 %126, label %173 [
    i32 0, label %127
    i32 2, label %170
  ]

127:                                              ; preds = %125
  br label %128

128:                                              ; preds = %127, %70
  %129 = load ptr, ptr %7, align 8, !tbaa !63
  %130 = icmp eq ptr %129, null
  br i1 %130, label %131, label %132

131:                                              ; preds = %128
  br label %170

132:                                              ; preds = %128
  %133 = load ptr, ptr %6, align 8, !tbaa !63
  %134 = icmp ne ptr %133, null
  br i1 %134, label %138, label %135

135:                                              ; preds = %132
  %136 = load ptr, ptr %9, align 8, !tbaa !11
  %137 = icmp ne ptr %136, null
  br i1 %137, label %138, label %160

138:                                              ; preds = %135, %132
  call void @llvm.lifetime.start.p0(i64 8, ptr %12) #11
  call void @llvm.lifetime.start.p0(i64 8, ptr %13) #11
  %139 = load ptr, ptr %7, align 8, !tbaa !63
  %140 = call ptr @OSSL_CMP_MSG_get0_header(ptr noundef %139)
  store ptr %140, ptr %8, align 8, !tbaa !84
  %141 = load ptr, ptr %8, align 8, !tbaa !84
  %142 = call ptr @OSSL_CMP_HDR_get0_recipNonce(ptr noundef %141)
  store ptr %142, ptr %12, align 8, !tbaa !86
  %143 = load ptr, ptr %8, align 8, !tbaa !84
  %144 = call ptr @OSSL_CMP_HDR_get0_transactionID(ptr noundef %143)
  store ptr %144, ptr %13, align 8, !tbaa !86
  %145 = load ptr, ptr %4, align 8, !tbaa !17
  %146 = load ptr, ptr %12, align 8, !tbaa !86
  %147 = call i32 @OSSL_CMP_CTX_set1_senderNonce(ptr noundef %145, ptr noundef %146)
  %148 = icmp ne i32 %147, 0
  br i1 %148, label %149, label %154

149:                                              ; preds = %138
  %150 = load ptr, ptr %4, align 8, !tbaa !17
  %151 = load ptr, ptr %13, align 8, !tbaa !86
  %152 = call i32 @OSSL_CMP_CTX_set1_transactionID(ptr noundef %150, ptr noundef %151)
  %153 = icmp ne i32 %152, 0
  br i1 %153, label %156, label %154

154:                                              ; preds = %149, %138
  %155 = load ptr, ptr %7, align 8, !tbaa !63
  call void @OSSL_CMP_MSG_free(ptr noundef %155)
  store ptr null, ptr %7, align 8, !tbaa !63
  store i32 2, ptr %10, align 4
  br label %157

156:                                              ; preds = %149
  store i32 0, ptr %10, align 4
  br label %157

157:                                              ; preds = %154, %156
  call void @llvm.lifetime.end.p0(i64 8, ptr %13) #11
  call void @llvm.lifetime.end.p0(i64 8, ptr %12) #11
  %158 = load i32, ptr %10, align 4
  switch i32 %158, label %173 [
    i32 0, label %159
    i32 2, label %170
  ]

159:                                              ; preds = %157
  br label %160

160:                                              ; preds = %159, %135
  %161 = load ptr, ptr @opt_rspout, align 8, !tbaa !11
  %162 = icmp ne ptr %161, null
  br i1 %162, label %163, label %169

163:                                              ; preds = %160
  %164 = load ptr, ptr %7, align 8, !tbaa !63
  %165 = call i32 @write_PKIMESSAGE(ptr noundef %164, ptr noundef @opt_rspout)
  %166 = icmp ne i32 %165, 0
  br i1 %166, label %169, label %167

167:                                              ; preds = %163
  %168 = load ptr, ptr %7, align 8, !tbaa !63
  call void @OSSL_CMP_MSG_free(ptr noundef %168)
  store ptr null, ptr %7, align 8, !tbaa !63
  br label %169

169:                                              ; preds = %167, %163, %160
  br label %170

170:                                              ; preds = %169, %157, %125, %131, %65, %59, %50, %40
  %171 = load ptr, ptr %6, align 8, !tbaa !63
  call void @OSSL_CMP_MSG_free(ptr noundef %171)
  %172 = load ptr, ptr %7, align 8, !tbaa !63
  store ptr %172, ptr %3, align 8
  store i32 1, ptr %10, align 4
  br label %173

173:                                              ; preds = %170, %157, %125, %32
  call void @llvm.lifetime.end.p0(i64 8, ptr %9) #11
  call void @llvm.lifetime.end.p0(i64 8, ptr %8) #11
  call void @llvm.lifetime.end.p0(i64 8, ptr %7) #11
  call void @llvm.lifetime.end.p0(i64 8, ptr %6) #11
  %174 = load ptr, ptr %3, align 8
  ret ptr %174
}