; Function Attrs: nounwind uwtable
define internal ptr @read_write_req_resp(ptr noundef %0, ptr noundef %1) #0 {
  %3 = load ptr, ptr @opt_rspin, align 8, !tbaa !4
  %4 = load ptr, ptr @opt_reqout_only, align 8, !tbaa !4
  %.not = icmp eq ptr %4, null
  br i1 %.not, label %16, label %5

5:                                                ; preds = %2
  %6 = tail call i32 @OSSL_CMP_MSG_write(ptr noundef nonnull %4, ptr noundef %1) #12
  %7 = icmp slt i32 %6, 0
  br i1 %7, label %8, label %15

8:                                                ; preds = %5
  %9 = load i32, ptr @opt_verbosity, align 4, !tbaa !10
  %10 = icmp slt i32 %9, 3
  br i1 %10, label %84, label %11

11:                                               ; preds = %8
  %12 = load ptr, ptr @bio_err, align 8, !tbaa !12
  %13 = load ptr, ptr @opt_reqout_only, align 8, !tbaa !4
  %14 = tail call i32 (ptr, ptr, ...) @BIO_printf(ptr noundef %12, ptr noundef nonnull @.str.483, ptr noundef nonnull @__func__.read_write_req_resp, ptr noundef nonnull @.str.351, i32 noundef 873, ptr noundef nonnull @.str.352, ptr noundef %13, ptr noundef nonnull @.str.353, ptr noundef nonnull @.str.353) #12
  br label %84

15:                                               ; preds = %5
  store i1 true, ptr @reqout_only_done, align 4
  br label %84

16:                                               ; preds = %2
  %17 = load ptr, ptr @opt_reqout, align 8, !tbaa !4
  %.not46 = icmp eq ptr %17, null
  br i1 %.not46, label %20, label %18

18:                                               ; preds = %16
  %19 = tail call fastcc i32 @write_PKIMESSAGE(ptr noundef %1, ptr noundef nonnull @opt_reqout)
  %.not47 = icmp eq i32 %19, 0
  br i1 %.not47, label %.thread, label %._crit_edge

._crit_edge:                                      ; preds = %18
  %.pre = load ptr, ptr @opt_rspin, align 8
  br label %20

20:                                               ; preds = %._crit_edge, %16
  %21 = phi ptr [ %.pre, %._crit_edge ], [ %3, %16 ]
  %22 = load ptr, ptr @opt_reqin, align 8, !tbaa !4
  %23 = icmp ne ptr %22, null
  %24 = icmp eq ptr %21, null
  %or.cond = select i1 %23, i1 %24, i1 false
  br i1 %or.cond, label %25, label %34

25:                                               ; preds = %20
  %26 = tail call fastcc ptr @read_PKIMESSAGE(ptr noundef nonnull @.str.484, ptr noundef nonnull @opt_reqin)
  %27 = icmp eq ptr %26, null
  br i1 %27, label %.thread, label %28

28:                                               ; preds = %25
  %29 = load i32, ptr @opt_reqin_new_tid, align 4, !tbaa !10
  %.not48 = icmp eq i32 %29, 0
  br i1 %.not48, label %32, label %30

30:                                               ; preds = %28
  %31 = tail call i32 @OSSL_CMP_MSG_update_transactionID(ptr noundef %0, ptr noundef nonnull %26) #12
  %.not49 = icmp eq i32 %31, 0
  br i1 %.not49, label %.thread, label %32

32:                                               ; preds = %30, %28
  %33 = tail call i32 @OSSL_CMP_MSG_update_recipNonce(ptr noundef %0, ptr noundef nonnull %26) #12
  %.not50 = icmp eq i32 %33, 0
  br i1 %.not50, label %.thread, label %thread-pre-split

thread-pre-split:                                 ; preds = %32
  %.pr = load ptr, ptr @opt_rspin, align 8, !tbaa !4
  br label %34

34:                                               ; preds = %thread-pre-split, %20
  %35 = phi ptr [ %.pr, %thread-pre-split ], [ %21, %20 ]
  %.1 = phi ptr [ %26, %thread-pre-split ], [ null, %20 ]
  %.not51 = icmp eq ptr %35, null
  br i1 %.not51, label %38, label %36

36:                                               ; preds = %34
  %37 = tail call fastcc ptr @read_PKIMESSAGE(ptr noundef nonnull @.str.485, ptr noundef nonnull @opt_rspin)
  br label %67

38:                                               ; preds = %34
  %.not52 = icmp eq ptr %.1, null
  %39 = select i1 %.not52, ptr %1, ptr %.1
  %40 = load i32, ptr @opt_use_mock_srv, align 4, !tbaa !10
  %.not53 = icmp eq i32 %40, 0
  br i1 %.not53, label %49, label %41

41:                                               ; preds = %38
  %.b45 = load i1, ptr @rspin_in_use, align 4
  %42 = load i32, ptr @opt_verbosity, align 4
  %43 = icmp sgt i32 %42, 3
  %or.cond5.not = select i1 %.b45, i1 %43, i1 false
  br i1 %or.cond5.not, label %44, label %47

44:                                               ; preds = %41
  %45 = load ptr, ptr @bio_out, align 8, !tbaa !12
  %46 = tail call i32 (ptr, ptr, ...) @BIO_printf(ptr noundef %45, ptr noundef nonnull @.str.486, ptr noundef nonnull @__func__.read_write_req_resp, ptr noundef nonnull @.str.351, i32 noundef 907, ptr noundef nonnull @.str.363, ptr noundef nonnull @.str.353, ptr noundef nonnull @.str.353, ptr noundef nonnull @.str.353) #12
  br label %47

47:                                               ; preds = %44, %41
  %48 = tail call ptr @OSSL_CMP_CTX_server_perform(ptr noundef %0, ptr noundef %39) #12
  br label %66

49:                                               ; preds = %38
  %50 = load ptr, ptr @opt_server, align 8, !tbaa !4
  %51 = icmp eq ptr %50, null
  br i1 %51, label %52, label %58

52:                                               ; preds = %49
  %53 = load i32, ptr @opt_verbosity, align 4, !tbaa !10
  %54 = icmp slt i32 %53, 3
  br i1 %54, label %.thread, label %55

55:                                               ; preds = %52
  %56 = load ptr, ptr @bio_err, align 8, !tbaa !12
  %57 = tail call i32 (ptr, ptr, ...) @BIO_printf(ptr noundef %56, ptr noundef nonnull @.str.487, ptr noundef nonnull @__func__.read_write_req_resp, ptr noundef nonnull @.str.351, i32 noundef 912, ptr noundef nonnull @.str.352, ptr noundef nonnull @.str.353, ptr noundef nonnull @.str.353, ptr noundef nonnull @.str.353) #12
  br label %.thread

58:                                               ; preds = %49
  %.b = load i1, ptr @rspin_in_use, align 4
  %59 = load i32, ptr @opt_verbosity, align 4
  %60 = icmp sgt i32 %59, 3
  %or.cond7.not = select i1 %.b, i1 %60, i1 false
  br i1 %or.cond7.not, label %61, label %64

61:                                               ; preds = %58
  %62 = load ptr, ptr @bio_out, align 8, !tbaa !12
  %63 = tail call i32 (ptr, ptr, ...) @BIO_printf(ptr noundef %62, ptr noundef nonnull @.str.488, ptr noundef nonnull @__func__.read_write_req_resp, ptr noundef nonnull @.str.351, i32 noundef 916, ptr noundef nonnull @.str.363, ptr noundef nonnull @.str.353, ptr noundef nonnull @.str.353, ptr noundef nonnull @.str.353) #12
  br label %64

64:                                               ; preds = %61, %58
  %65 = tail call ptr @OSSL_CMP_MSG_http_perform(ptr noundef %0, ptr noundef %39) #12
  br label %66

66:                                               ; preds = %47, %64
  %.2 = phi ptr [ %48, %47 ], [ %65, %64 ]
  store i1 false, ptr @rspin_in_use, align 4
  br label %67

67:                                               ; preds = %66, %36
  %.139 = phi ptr [ %37, %36 ], [ %.2, %66 ]
  %68 = icmp eq ptr %.139, null
  br i1 %68, label %.thread, label %69

69:                                               ; preds = %67
  %70 = icmp ne ptr %.1, null
  %71 = icmp ne ptr %3, null
  %or.cond3 = select i1 %70, i1 true, i1 %71
  br i1 %or.cond3, label %72, label %.thread67

72:                                               ; preds = %69
  %73 = tail call ptr @OSSL_CMP_MSG_get0_header(ptr noundef nonnull %.139) #12
  %74 = tail call ptr @OSSL_CMP_HDR_get0_recipNonce(ptr noundef %73) #12
  %75 = tail call ptr @OSSL_CMP_HDR_get0_transactionID(ptr noundef %73) #12
  %76 = tail call i32 @OSSL_CMP_CTX_set1_senderNonce(ptr noundef %0, ptr noundef %74) #12
  %.not56 = icmp eq i32 %76, 0
  br i1 %.not56, label %79, label %77

77:                                               ; preds = %72
  %78 = tail call i32 @OSSL_CMP_CTX_set1_transactionID(ptr noundef %0, ptr noundef %75) #12
  %.not57 = icmp eq i32 %78, 0
  br i1 %.not57, label %79, label %.thread67

79:                                               ; preds = %72, %77
  tail call void @OSSL_CMP_MSG_free(ptr noundef nonnull %.139) #12
  br label %.thread

.thread67:                                        ; preds = %77, %69
  %80 = load ptr, ptr @opt_rspout, align 8, !tbaa !4
  %.not58 = icmp eq ptr %80, null
  br i1 %.not58, label %.thread, label %81

81:                                               ; preds = %.thread67
  %82 = tail call fastcc i32 @write_PKIMESSAGE(ptr noundef nonnull %.139, ptr noundef nonnull @opt_rspout)
  %.not59 = icmp eq i32 %82, 0
  br i1 %.not59, label %83, label %.thread

83:                                               ; preds = %81
  tail call void @OSSL_CMP_MSG_free(ptr noundef nonnull %.139) #12
  br label %.thread

.thread:                                          ; preds = %55, %52, %79, %.thread67, %81, %83, %67, %32, %30, %25, %18
  %.038 = phi ptr [ null, %25 ], [ null, %67 ], [ null, %79 ], [ %.139, %81 ], [ null, %83 ], [ %.139, %.thread67 ], [ null, %32 ], [ null, %30 ], [ null, %18 ], [ null, %52 ], [ null, %55 ]
  %.037 = phi ptr [ null, %25 ], [ %.1, %67 ], [ %.1, %79 ], [ %.1, %81 ], [ %.1, %83 ], [ %.1, %.thread67 ], [ %26, %32 ], [ %26, %30 ], [ null, %18 ], [ %.1, %52 ], [ %.1, %55 ]
  tail call void @OSSL_CMP_MSG_free(ptr noundef %.037) #12
  br label %84

84:                                               ; preds = %15, %8, %11, %.thread
  %.0 = phi ptr [ %.038, %.thread ], [ null, %11 ], [ null, %8 ], [ null, %15 ]
  ret ptr %.0
}